(lp0
(dp1
Vdomain
p2
V.facebook.com
p3
sVname
p4
Vdatr
p5
sVvalue
p6
VTAGbWpzLogrlAxoJ8vBU3XSS
p7
sVexpiry
p8
I1583179852
sVpath
p9
V/
p10
sVhttpOnly
p11
I01
sVsecure
p12
I01
sa(dp13
Vdomain
p14
V.facebook.com
p15
sVname
p16
Vm_pixel_ratio
p17
sVvalue
p18
V1
p19
sVexpiry
p20
NsVpath
p21
g10
sVhttpOnly
p22
I00
sVsecure
p23
I01
sa(dp24
Vdomain
p25
V.facebook.com
p26
sVname
p27
Vx-referer
p28
sVvalue
p29
VeyJyIjoiLz9zb2Z0PWF1dGgiLCJoIjoiLz9zb2Z0PWF1dGgiLCJzIjoibSJ9
p30
sVexpiry
p31
NsVpath
p32
g10
sVhttpOnly
p33
I00
sVsecure
p34
I01
sa(dp35
Vdomain
p36
V.facebook.com
p37
sVname
p38
Vlocale
p39
sVvalue
p40
Ven_US
p41
sVexpiry
p42
I1520712673
sVpath
p43
g10
sVhttpOnly
p44
I00
sVsecure
p45
I01
sa(dp46
Vdomain
p47
V.facebook.com
p48
sVname
p49
Vsb
p50
sVvalue
p51
VTAGbWkdvwl4emPy7d5XGRlCG
p52
sVexpiry
p53
I1583179885
sVpath
p54
g10
sVhttpOnly
p55
I01
sVsecure
p56
I01
sa(dp57
Vdomain
p58
V.facebook.com
p59
sVname
p60
Vc_user
p61
sVvalue
p62
V100001382273691
p63
sVexpiry
p64
I1527883885
sVpath
p65
g10
sVhttpOnly
p66
I00
sVsecure
p67
I01
sa(dp68
Vdomain
p69
V.facebook.com
p70
sVname
p71
Vxs
p72
sVvalue
p73
V26%3AEFpA2Cx5fuwQ1A%3A2%3A1520107885%3A12868%3A2434
p74
sVexpiry
p75
I1527883885
sVpath
p76
g10
sVhttpOnly
p77
I01
sVsecure
p78
I01
sa(dp79
Vdomain
p80
V.facebook.com
p81
sVname
p82
Vpl
p83
sVvalue
p84
Vn
p85
sVexpiry
p86
I1527883885
sVpath
p87
g10
sVhttpOnly
p88
I01
sVsecure
p89
I01
sa(dp90
Vdomain
p91
V.facebook.com
p92
sVname
p93
Vwd
p94
sVvalue
p95
V946x956
p96
sVexpiry
p97
I1520712689
sVpath
p98
g10
sVhttpOnly
p99
I00
sVsecure
p100
I01
sa(dp101
Vdomain
p102
V.facebook.com
p103
sVname
p104
Vfr
p105
sVvalue
p106
V0Ie4GZowaNP4Dsr7R.AWUC3rgvI1s0KZTSxVY5ies3Buk.BamwFM.v8.Fqb.0.0.BamwFy.AWWAe8CS
p107
sVexpiry
p108
I1527883890
sVpath
p109
g10
sVhttpOnly
p110
I01
sVsecure
p111
I01
sa.