(lp0
(dp1
Vdomain
p2
V.linkedin.com
p3
sVname
p4
Vbcookie
p5
sVvalue
p6
V"v=2&1a86b927-059a-4cf2-8f33-b9c46d7fa42b"
p7
sVexpiry
p8
I1583231648
sVpath
p9
V/
p10
sVhttpOnly
p11
I00
sVsecure
p12
I00
sa(dp13
Vdomain
p14
V.www.linkedin.com
p15
sVname
p16
Vbscookie
p17
sVvalue
p18
V"v=1&20180303225636b981b65a-09c0-45e4-82f4-ec5f300e0ab6AQG1TjYyTzH1-ZWM9owrD-oe0twKC01x"
p19
sVexpiry
p20
I1583231648
sVpath
p21
g10
sVhttpOnly
p22
I01
sVsecure
p23
I01
sa(dp24
Vdomain
p25
V.linkedin.com
p26
sVname
p27
Vlang
p28
sVvalue
p29
V"v=2&lang=en-us"
p30
sVexpiry
p31
NsVpath
p32
g10
sVhttpOnly
p33
I00
sVsecure
p34
I00
sa(dp35
Vdomain
p36
Vwww.linkedin.com
p37
sVname
p38
Vleo_auth_token
p39
sVvalue
p40
V"GST:96WIVyuOHhXpIpXqz_pU-yw14tSuPuCAztWqcNuDHBnhsWFdurBJp0:1520118665:9b4332cd50fcdfca992cb79bcf4712edf4934019"
p41
sVexpiry
p42
I1520120464
sVpath
p43
g10
sVhttpOnly
p44
I00
sVsecure
p45
I00
sa(dp46
Vdomain
p47
V.www.linkedin.com
p48
sVname
p49
Vsl
p50
sVvalue
p51
V"v=1&gE7A3"
p52
sVexpiry
p53
I1527894665
sVpath
p54
g10
sVhttpOnly
p55
I00
sVsecure
p56
I00
sa(dp57
Vdomain
p58
V.www.linkedin.com
p59
sVname
p60
Vli_at
p61
sVvalue
p62
VAQEDARnfEdwAsPnzAAABYe4iEfYAAAFiEi6V9k0AQgGnFdhZ9RWugWP81vlipFevkSF0zNb2kDDjZ64hP4x_c2SXEI1mZCCKduwHc0G8XTJvZ4YkNpVv58nNwk6r27XM62c71ERvN9u9pE6vSvxhGYfo
p63
sVexpiry
p64
I1551654665
sVpath
p65
g10
sVhttpOnly
p66
I01
sVsecure
p67
I01
sa(dp68
Vdomain
p69
V.www.linkedin.com
p70
sVname
p71
VJSESSIONID
p72
sVvalue
p73
V"ajax:1227225107077979857"
p74
sVexpiry
p75
I1527894665
sVpath
p76
g10
sVhttpOnly
p77
I00
sVsecure
p78
I01
sa(dp79
Vdomain
p80
V.linkedin.com
p81
sVname
p82
Vliap
p83
sVvalue
p84
Vtrue
p85
sVexpiry
p86
I1527894665
sVpath
p87
g10
sVhttpOnly
p88
I00
sVsecure
p89
I00
sa(dp90
Vdomain
p91
V.www.linkedin.com
p92
sVname
p93
Vmst
p94
sVvalue
p95
V"v=1&gE7A3"
p96
sVexpiry
p97
I1527894665
sVpath
p98
g10
sVhttpOnly
p99
I00
sVsecure
p100
I01
sa(dp101
Vdomain
p102
V.linkedin.com
p103
sVname
p104
VRT
p105
sVvalue
p106
Vs=1520118666058&r=https%3A%2F%2Fwww.linkedin.com%2F
p107
sVexpiry
p108
I1520119266
sVpath
p109
g10
sVhttpOnly
p110
I00
sVsecure
p111
I00
sa(dp112
Vdomain
p113
Vwww.linkedin.com
p114
sVname
p115
Vvisit
p116
sVvalue
p117
V"v=1&M"
p118
sVexpiry
p119
I1583190671
sVpath
p120
g10
sVhttpOnly
p121
I00
sVsecure
p122
I00
sa(dp123
Vdomain
p124
Vwww.linkedin.com
p125
sVname
p126
Vall_u_b
p127
sVvalue
p128
Vtrue
p129
sVexpiry
p130
I1521933084
sVpath
p131
g10
sVhttpOnly
p132
I01
sVsecure
p133
I00
sa(dp134
Vdomain
p135
V.linkedin.com
p136
sVname
p137
V_ga
p138
sVvalue
p139
VGA1.2.1893469174.1520117797
p140
sVexpiry
p141
I1583190686
sVpath
p142
g10
sVhttpOnly
p143
I00
sVsecure
p144
I00
sa(dp145
Vdomain
p146
V.linkedin.com
p147
sVname
p148
V_gat
p149
sVvalue
p150
V1
p151
sVexpiry
p152
I1520119286
sVpath
p153
g10
sVhttpOnly
p154
I00
sVsecure
p155
I00
sa(dp156
Vdomain
p157
V.linkedin.com
p158
sVname
p159
V_lipt
p160
sVvalue
p161
VCwEAAAFh7iJrtBFO44M7m2QgiCXaacW_8IwNlmyegxPrBk9cXWu_DSrw31OhpC0b6WUXUGeenpf5dywI70YWgk85aiufJfWuMaTVIhzWjd2dZMPsaU8ymxmpEV8utRBWVRCfpG2aA7euvhD_pl4I-Cc1eZ8HMuZV06-3g6qZG6IbOUpy_zBK4Xq8oeELzzYvpfbRtD2_8fhyou5SYm5MKaZSZFIsdxrcvEQrf1Ou8O6RHL5mwQiKJNlqwGHzh_o2GIrvNgMWoZrBrBH9gYWsqFDItnUxs62bluaTfYKXBAWT7tEj9dpcSMnS2BhE5N2ds_gEvXAMSL-nOHaDdv-sO1Omp8ICi1iZmrFcBG6PmSoI8wPMVc6tJ0VcneK3flWkbdx9Fccg8cHBXcfLOGReYOcqJz8uIH0palQ
p162
sVexpiry
p163
I1522710689
sVpath
p164
g10
sVhttpOnly
p165
I00
sVsecure
p166
I00
sa(dp167
Vdomain
p168
V.linkedin.com
p169
sVname
p170
Vlidc
p171
sVvalue
p172
V"b=VB00:g=2230:u=472:i=1520118710:t=1520154666:s=AQG7ARFpOZzkch3uUcqotb0pysIzFV3V"
p173
sVexpiry
p174
I1520154666
sVpath
p175
g10
sVhttpOnly
p176
I00
sVsecure
p177
I00
sa.